target datalayout = "e-m:e-p270:32:32-p271:32:32-p272:64:64-i64:64-i128:128-f80:128-n8:16:32:64-S128"
target triple = "x86_64-pc-linux-gnu"

%"struct.std::atomic" = type { %"struct.std::__atomic_base" }
%"struct.std::__atomic_base" = type { i64 }
%"struct.google::protobuf::internal::SerialArena::Memory" = type { ptr, i64 }
%"class.google::protobuf::internal::LogMessage" = type { i32, ptr, i32, %"class.std::__cxx11::basic_string" }
%"class.std::__cxx11::basic_string" = type { %"struct.std::__cxx11::basic_string<char>::_Alloc_hider", i64, %union.anon }
%"struct.std::__cxx11::basic_string<char>::_Alloc_hider" = type { ptr }
%union.anon = type { i64, [8 x i8] }
%"class.google::protobuf::internal::LogFinisher" = type { i8 }
%"struct.google::protobuf::internal::SerialArena::Block" = type { ptr, i64, ptr }
%"class.google::protobuf::internal::SerialArena" = type { ptr, ptr, ptr, i64, %"struct.std::atomic", ptr, ptr }
%"struct.std::pair" = type { ptr, ptr }

@.str.7 = private unnamed_addr constant [142 x i8] c"generated/home/dtcxzyw/WorkSpace/Projects/compilers/llvm-opt-benchmark/bench/opencv/opencv/3rdparty/protobuf/src/google/protobuf/arena_impl.h\00", align 1
@.str.8 = private unnamed_addr constant [26 x i8] c"CHECK failed: n <= size: \00", align 1

; Function Attrs: mustprogress nounwind uwtable
define linkonce_odr hidden void @_ZNSt4pairIPvPN6google8protobuf8internal11SerialArena11CleanupNodeEEC2IRS0_RS6_TnNSt9enable_ifIXaaclsr5_PCCPE22_MoveConstructiblePairIT_T0_EEclsr5_PCCPE30_ImplicitlyMoveConvertiblePairISC_SD_EEEbE4typeELb1EEEOSC_OSD_(ptr noundef nonnull align 8 dereferenceable(16) %0, ptr noundef nonnull align 8 dereferenceable(8) %1, ptr noundef nonnull align 8 dereferenceable(8) %2) unnamed_addr #6 comdat align 2 {
  %4 = alloca ptr, align 8
  %5 = alloca ptr, align 8
  %6 = alloca ptr, align 8
  store ptr %0, ptr %4, align 8, !tbaa !121
  store ptr %1, ptr %5, align 8, !tbaa !79
  store ptr %2, ptr %6, align 8, !tbaa !123
  %7 = load ptr, ptr %4, align 8
  %8 = getelementptr inbounds nuw %"struct.std::pair", ptr %7, i32 0, i32 0
  %9 = load ptr, ptr %5, align 8, !tbaa !79
  %10 = load ptr, ptr %9, align 8, !tbaa !3
  store ptr %10, ptr %8, align 8, !tbaa !125
  %11 = getelementptr inbounds nuw %"struct.std::pair", ptr %7, i32 0, i32 1
  %12 = load ptr, ptr %6, align 8, !tbaa !123
  %13 = load ptr, ptr %12, align 8, !tbaa !46
  store ptr %13, ptr %11, align 8, !tbaa !109
  ret void
}

; Function Attrs: noinline noreturn nounwind uwtable
define linkonce_odr hidden void @__clang_call_terminate(ptr noundef %0) #13 comdat {
  %2 = call ptr @__cxa_begin_catch(ptr %0) #3
  call void @_ZSt9terminatev() #20
  unreachable
}

; Function Attrs: mustprogress nounwind uwtable
define linkonce_odr noundef i32 @_ZStanSt12memory_orderSt23__memory_order_modifier(i32 noundef %0, i32 noundef %1) #6 comdat {
  %3 = alloca i32, align 4
  %4 = alloca i32, align 4
  store i32 %0, ptr %3, align 4, !tbaa !35
  store i32 %1, ptr %4, align 4, !tbaa !126
  %5 = load i32, ptr %3, align 4, !tbaa !35
  %6 = load i32, ptr %4, align 4, !tbaa !126
  %7 = and i32 %5, %6
  ret i32 %7
}

; Function Attrs: mustprogress uwtable
define linkonce_odr hidden { ptr, ptr } @_ZN6google8protobuf8internal11SerialArena10CreatePairEPvPNS2_11CleanupNodeE(ptr noundef nonnull align 8 dereferenceable(56) %0, ptr noundef %1, ptr noundef %2) #4 comdat align 2 {
  %4 = alloca %"struct.std::pair", align 8
  %5 = alloca ptr, align 8
  %6 = alloca ptr, align 8
  %7 = alloca ptr, align 8
  store ptr %0, ptr %5, align 8, !tbaa !22
  store ptr %1, ptr %6, align 8, !tbaa !3
  store ptr %2, ptr %7, align 8, !tbaa !46
  call void @_ZNSt4pairIPvPN6google8protobuf8internal11SerialArena11CleanupNodeEEC2IRS0_RS6_TnNSt9enable_ifIXaaclsr5_PCCPE22_MoveConstructiblePairIT_T0_EEclsr5_PCCPE30_ImplicitlyMoveConvertiblePairISC_SD_EEEbE4typeELb1EEEOSC_OSD_(ptr noundef nonnull align 8 dereferenceable(16) %4, ptr noundef nonnull align 8 dereferenceable(8) %6, ptr noundef nonnull align 8 dereferenceable(8) %7)
  %8 = load { ptr, ptr }, ptr %4, align 8
  ret { ptr, ptr } %8
}

; Function Attrs: mustprogress nounwind uwtable
define linkonce_odr hidden void @_ZN6google8protobuf8internal11SerialArena5BlockC2EPS3_m(ptr noundef nonnull align 8 dereferenceable(24) %0, ptr noundef %1, i64 noundef %2) unnamed_addr #6 comdat align 2 {
  %4 = alloca ptr, align 8
  %5 = alloca ptr, align 8
  %6 = alloca i64, align 8
  store ptr %0, ptr %4, align 8, !tbaa !13
  store ptr %1, ptr %5, align 8, !tbaa !13
  store i64 %2, ptr %6, align 8, !tbaa !15
  %7 = load ptr, ptr %4, align 8
  %8 = getelementptr inbounds nuw %"struct.google::protobuf::internal::SerialArena::Block", ptr %7, i32 0, i32 0
  %9 = load ptr, ptr %5, align 8, !tbaa !13
  store ptr %9, ptr %8, align 8, !tbaa !16
  %10 = getelementptr inbounds nuw %"struct.google::protobuf::internal::SerialArena::Block", ptr %7, i32 0, i32 1
  %11 = load i64, ptr %6, align 8, !tbaa !15
  store i64 %11, ptr %10, align 8, !tbaa !19
  %12 = getelementptr inbounds nuw %"struct.google::protobuf::internal::SerialArena::Block", ptr %7, i32 0, i32 2
  store ptr null, ptr %12, align 8, !tbaa !20
  ret void
}

; Function Attrs: alwaysinline mustprogress nounwind uwtable
define linkonce_odr hidden void @_ZNSt13__atomic_baseImE5storeEmSt12memory_order(ptr noundef nonnull align 8 dereferenceable(8) %0, i64 noundef %1, i32 noundef %2) #9 comdat align 2 {
  %4 = alloca ptr, align 8
  %5 = alloca i64, align 8
  %6 = alloca i32, align 4
  %7 = alloca i32, align 4
  %8 = alloca i64, align 8
  store ptr %0, ptr %4, align 8, !tbaa !44
  store i64 %1, ptr %5, align 8, !tbaa !15
  store i32 %2, ptr %6, align 4, !tbaa !35
  %9 = load ptr, ptr %4, align 8
  call void @llvm.lifetime.start.p0(i64 4, ptr %7) #3
  %10 = load i32, ptr %6, align 4, !tbaa !35
  %11 = call noundef i32 @_ZStanSt12memory_orderSt23__memory_order_modifier(i32 noundef %10, i32 noundef 65535)
  store i32 %11, ptr %7, align 4, !tbaa !35
  br label %12

12:                                               ; preds = %3
  br label %13

13:                                               ; preds = %12
  br label %14

14:                                               ; preds = %13
  br label %15

15:                                               ; preds = %14
  br label %16

16:                                               ; preds = %15
  br label %17

17:                                               ; preds = %16
  br label %18

18:                                               ; preds = %17
  br label %19

19:                                               ; preds = %18
  br label %20

20:                                               ; preds = %19
  %21 = getelementptr inbounds nuw %"struct.std::__atomic_base", ptr %9, i32 0, i32 0
  %22 = load i32, ptr %6, align 4, !tbaa !35
  %23 = load i64, ptr %5, align 8, !tbaa !15
  store i64 %23, ptr %8, align 8, !tbaa !15
  switch i32 %22, label %24 [
    i32 3, label %26
    i32 5, label %28
  ]

24:                                               ; preds = %20
  %25 = load i64, ptr %8, align 8
  store atomic i64 %25, ptr %21 monotonic, align 8
  br label %30

26:                                               ; preds = %20
  %27 = load i64, ptr %8, align 8
  store atomic i64 %27, ptr %21 release, align 8
  br label %30

28:                                               ; preds = %20
  %29 = load i64, ptr %8, align 8
  store atomic i64 %29, ptr %21 seq_cst, align 8
  br label %30

30:                                               ; preds = %28, %26, %24
  call void @llvm.lifetime.end.p0(i64 4, ptr %7) #3
  ret void
}

; Function Attrs: alwaysinline mustprogress nounwind uwtable
define linkonce_odr hidden noundef i64 @_ZNKSt13__atomic_baseImE4loadESt12memory_order(ptr noundef nonnull align 8 dereferenceable(8) %0, i32 noundef %1) #9 comdat align 2 personality ptr @__gxx_personality_v0 {
  %3 = alloca ptr, align 8
  %4 = alloca i32, align 4
  %5 = alloca i32, align 4
  %6 = alloca i64, align 8
  store ptr %0, ptr %3, align 8, !tbaa !44
  store i32 %1, ptr %4, align 4, !tbaa !35
  %7 = load ptr, ptr %3, align 8
  call void @llvm.lifetime.start.p0(i64 4, ptr %5) #3
  %8 = load i32, ptr %4, align 4, !tbaa !35
  %9 = invoke noundef i32 @_ZStanSt12memory_orderSt23__memory_order_modifier(i32 noundef %8, i32 noundef 65535)
          to label %10 unwind label %27

10:                                               ; preds = %2
  store i32 %9, ptr %5, align 4, !tbaa !35
  br label %11

11:                                               ; preds = %10
  br label %12

12:                                               ; preds = %11
  br label %13

13:                                               ; preds = %12
  br label %14

14:                                               ; preds = %13
  br label %15

15:                                               ; preds = %14
  br label %16

16:                                               ; preds = %15
  %17 = getelementptr inbounds nuw %"struct.std::__atomic_base", ptr %7, i32 0, i32 0
  %18 = load i32, ptr %4, align 4, !tbaa !35
  switch i32 %18, label %19 [
    i32 1, label %21
    i32 2, label %21
    i32 5, label %23
  ]

19:                                               ; preds = %16
  %20 = load atomic i64, ptr %17 monotonic, align 8
  store i64 %20, ptr %6, align 8
  br label %25

21:                                               ; preds = %16, %16
  %22 = load atomic i64, ptr %17 acquire, align 8
  store i64 %22, ptr %6, align 8
  br label %25

23:                                               ; preds = %16
  %24 = load atomic i64, ptr %17 seq_cst, align 8
  store i64 %24, ptr %6, align 8
  br label %25

25:                                               ; preds = %23, %21, %19
  %26 = load i64, ptr %6, align 8, !tbaa !15
  call void @llvm.lifetime.end.p0(i64 4, ptr %5) #3
  ret i64 %26

27:                                               ; preds = %2
  %28 = landingpad { ptr, i32 }
          catch ptr null
  %29 = extractvalue { ptr, i32 } %28, 0
  call void @__clang_call_terminate(ptr %29) #20
  unreachable
}

; Function Attrs: mustprogress uwtable
define linkonce_odr hidden noundef ptr @_ZN6google8protobuf8internal11SerialArena5Block7PointerEm(ptr noundef nonnull align 8 dereferenceable(24) %0, i64 noundef %1) #4 comdat align 2 personality ptr @__gxx_personality_v0 {
  %3 = alloca ptr, align 8
  %4 = alloca i64, align 8
  %5 = alloca %"class.google::protobuf::internal::LogMessage", align 8
  %6 = alloca i1, align 1
  %7 = alloca i1, align 1
  %8 = alloca ptr, align 8
  %9 = alloca i32, align 4
  %10 = alloca %"class.google::protobuf::internal::LogFinisher", align 1
  store ptr %0, ptr %3, align 8, !tbaa !13
  store i64 %1, ptr %4, align 8, !tbaa !15
  %11 = load ptr, ptr %3, align 8
  br label %12

12:                                               ; preds = %29, %2
  br i1 false, label %13, label %45

13:                                               ; preds = %12
  %14 = load i64, ptr %4, align 8, !tbaa !15
  %15 = getelementptr inbounds nuw %"struct.google::protobuf::internal::SerialArena::Block", ptr %11, i32 0, i32 1
  %16 = load i64, ptr %15, align 8, !tbaa !19
  %17 = icmp ule i64 %14, %16
  store i1 false, ptr %6, align 1
  store i1 false, ptr %7, align 1
  call void @llvm.lifetime.start.p0(i64 1, ptr %10) #3
  br i1 %17, label %18, label %19

18:                                               ; preds = %13
  br label %23

19:                                               ; preds = %13
  call void @llvm.lifetime.start.p0(i64 56, ptr %5) #3
  store i1 true, ptr %6, align 1
  call void @_ZN6google8protobuf8internal10LogMessageC1ENS0_8LogLevelEPKci(ptr noundef nonnull align 8 dereferenceable(56) %5, i32 noundef 3, ptr noundef @.str.7, i32 noundef 293)
  store i1 true, ptr %7, align 1
  %20 = invoke noundef nonnull align 8 dereferenceable(56) ptr @_ZN6google8protobuf8internal10LogMessagelsEPKc(ptr noundef nonnull align 8 dereferenceable(56) %5, ptr noundef @.str.8)
          to label %21 unwind label %30

21:                                               ; preds = %19
  invoke void @_ZN6google8protobuf8internal11LogFinisheraSERNS1_10LogMessageE(ptr noundef nonnull align 1 dereferenceable(1) %10, ptr noundef nonnull align 8 dereferenceable(56) %20)
          to label %22 unwind label %34

22:                                               ; preds = %21
  br label %23

23:                                               ; preds = %22, %18
  call void @llvm.lifetime.end.p0(i64 1, ptr %10) #3
  %24 = load i1, ptr %7, align 1
  br i1 %24, label %25, label %26

25:                                               ; preds = %23
  call void @_ZN6google8protobuf8internal10LogMessageD1Ev(ptr noundef nonnull align 8 dereferenceable(56) %5) #3
  br label %26

26:                                               ; preds = %25, %23
  %27 = load i1, ptr %6, align 1
  br i1 %27, label %28, label %29

28:                                               ; preds = %26
  call void @llvm.lifetime.end.p0(i64 56, ptr %5) #3
  br label %29

29:                                               ; preds = %28, %26
  br label %12, !llvm.loop !21

30:                                               ; preds = %19
  %31 = landingpad { ptr, i32 }
          cleanup
  %32 = extractvalue { ptr, i32 } %31, 0
  store ptr %32, ptr %8, align 8
  %33 = extractvalue { ptr, i32 } %31, 1
  store i32 %33, ptr %9, align 4
  br label %38

34:                                               ; preds = %21
  %35 = landingpad { ptr, i32 }
          cleanup
  %36 = extractvalue { ptr, i32 } %35, 0
  store ptr %36, ptr %8, align 8
  %37 = extractvalue { ptr, i32 } %35, 1
  store i32 %37, ptr %9, align 4
  call void @llvm.lifetime.end.p0(i64 1, ptr %10) #3
  br label %38

38:                                               ; preds = %34, %30
  %39 = load i1, ptr %7, align 1
  br i1 %39, label %40, label %41

40:                                               ; preds = %38
  call void @_ZN6google8protobuf8internal10LogMessageD1Ev(ptr noundef nonnull align 8 dereferenceable(56) %5) #3
  br label %41

41:                                               ; preds = %40, %38
  %42 = load i1, ptr %6, align 1
  br i1 %42, label %43, label %44

43:                                               ; preds = %41
  call void @llvm.lifetime.end.p0(i64 56, ptr %5) #3
  br label %44

44:                                               ; preds = %43, %41
  br label %48

45:                                               ; preds = %12
  %46 = load i64, ptr %4, align 8, !tbaa !15
  %47 = getelementptr inbounds nuw i8, ptr %11, i64 %46
  ret ptr %47

48:                                               ; preds = %44
  %49 = load ptr, ptr %8, align 8
  %50 = load i32, ptr %9, align 4
  %51 = insertvalue { ptr, i32 } poison, ptr %49, 0
  %52 = insertvalue { ptr, i32 } %51, i32 %50, 1
  resume { ptr, i32 } %52
}

; Function Attrs: mustprogress uwtable
define linkonce_odr hidden { ptr, ptr } @_ZN6google8protobuf8internal11SerialArena39AllocateFromExistingWithCleanupFallbackEm(ptr noundef nonnull align 8 dereferenceable(56) %0, i64 noundef %1) #4 comdat align 2 {
  %3 = alloca %"struct.std::pair", align 8
  %4 = alloca ptr, align 8
  %5 = alloca i64, align 8
  %6 = alloca ptr, align 8
  store ptr %0, ptr %4, align 8, !tbaa !22
  store i64 %1, ptr %5, align 8, !tbaa !15
  %7 = load ptr, ptr %4, align 8
  call void @llvm.lifetime.start.p0(i64 8, ptr %6) #3
  %8 = getelementptr inbounds nuw %"class.google::protobuf::internal::SerialArena", ptr %7, i32 0, i32 5
  %9 = load ptr, ptr %8, align 8, !tbaa !31
  store ptr %9, ptr %6, align 8, !tbaa !3
  %10 = load i64, ptr %5, align 8, !tbaa !15
  %11 = getelementptr inbounds nuw %"class.google::protobuf::internal::SerialArena", ptr %7, i32 0, i32 5
  %12 = load ptr, ptr %11, align 8, !tbaa !31
  %13 = getelementptr inbounds nuw i8, ptr %12, i64 %10
  store ptr %13, ptr %11, align 8, !tbaa !31
  %14 = getelementptr inbounds nuw %"class.google::protobuf::internal::SerialArena", ptr %7, i32 0, i32 6
  %15 = load ptr, ptr %14, align 8, !tbaa !32
  %16 = getelementptr inbounds i8, ptr %15, i64 -16
  store ptr %16, ptr %14, align 8, !tbaa !32
  %17 = load ptr, ptr %6, align 8, !tbaa !3
  %18 = getelementptr inbounds nuw %"class.google::protobuf::internal::SerialArena", ptr %7, i32 0, i32 6
  %19 = load ptr, ptr %18, align 8, !tbaa !32
  %20 = call { ptr, ptr } @_ZN6google8protobuf8internal11SerialArena10CreatePairEPvPNS2_11CleanupNodeE(ptr noundef nonnull align 8 dereferenceable(56) %7, ptr noundef %17, ptr noundef %19)
  %21 = getelementptr inbounds nuw { ptr, ptr }, ptr %3, i32 0, i32 0
  %22 = extractvalue { ptr, ptr } %20, 0
  store ptr %22, ptr %21, align 8
  %23 = getelementptr inbounds nuw { ptr, ptr }, ptr %3, i32 0, i32 1
  %24 = extractvalue { ptr, ptr } %20, 1
  store ptr %24, ptr %23, align 8
  call void @llvm.lifetime.end.p0(i64 8, ptr %6) #3
  %25 = load { ptr, ptr }, ptr %3, align 8
  ret { ptr, ptr } %25
}

; Function Attrs: mustprogress uwtable
define hidden void @_ZN6google8protobuf8internal11SerialArena16AllocateNewBlockEmPKNS1_16AllocationPolicyE(ptr noundef nonnull align 8 dereferenceable(56) %0, i64 noundef %1, ptr noundef %2) #4 align 2 {
  %4 = alloca ptr, align 8
  %5 = alloca i64, align 8
  %6 = alloca ptr, align 8
  %7 = alloca %"struct.google::protobuf::internal::SerialArena::Memory", align 8
  %8 = alloca i32, align 4
  store ptr %0, ptr %4, align 8, !tbaa !22
  store i64 %1, ptr %5, align 8, !tbaa !15
  store ptr %2, ptr %6, align 8, !tbaa !33
  %9 = load ptr, ptr %4, align 8
  %10 = getelementptr inbounds nuw %"class.google::protobuf::internal::SerialArena", ptr %9, i32 0, i32 6
  %11 = load ptr, ptr %10, align 8, !tbaa !32
  %12 = getelementptr inbounds nuw %"class.google::protobuf::internal::SerialArena", ptr %9, i32 0, i32 1
  %13 = load ptr, ptr %12, align 8, !tbaa !30
  %14 = getelementptr inbounds nuw %"struct.google::protobuf::internal::SerialArena::Block", ptr %13, i32 0, i32 2
  store ptr %11, ptr %14, align 8, !tbaa !20
  %15 = getelementptr inbounds nuw %"class.google::protobuf::internal::SerialArena", ptr %9, i32 0, i32 5
  %16 = load ptr, ptr %15, align 8, !tbaa !31
  %17 = getelementptr inbounds nuw %"class.google::protobuf::internal::SerialArena", ptr %9, i32 0, i32 1
  %18 = load ptr, ptr %17, align 8, !tbaa !30
  %19 = call noundef ptr @_ZN6google8protobuf8internal11SerialArena5Block7PointerEm(ptr noundef nonnull align 8 dereferenceable(24) %18, i64 noundef 24)
  %20 = ptrtoint ptr %16 to i64
  %21 = ptrtoint ptr %19 to i64
  %22 = sub i64 %20, %21
  %23 = getelementptr inbounds nuw %"class.google::protobuf::internal::SerialArena", ptr %9, i32 0, i32 3
  %24 = load i64, ptr %23, align 8, !tbaa !24
  %25 = add i64 %24, %22
  store i64 %25, ptr %23, align 8, !tbaa !24
  call void @llvm.lifetime.start.p0(i64 16, ptr %7) #3
  %26 = load ptr, ptr %6, align 8, !tbaa !33
  %27 = getelementptr inbounds nuw %"class.google::protobuf::internal::SerialArena", ptr %9, i32 0, i32 1
  %28 = load ptr, ptr %27, align 8, !tbaa !30
  %29 = getelementptr inbounds nuw %"struct.google::protobuf::internal::SerialArena::Block", ptr %28, i32 0, i32 1
  %30 = load i64, ptr %29, align 8, !tbaa !19
  %31 = load i64, ptr %5, align 8, !tbaa !15
  %32 = call { ptr, i64 } @_ZN6google8protobuf8internalL14AllocateMemoryEPKNS1_16AllocationPolicyEmm(ptr noundef %26, i64 noundef %30, i64 noundef %31)
  %33 = getelementptr inbounds nuw { ptr, i64 }, ptr %7, i32 0, i32 0
  %34 = extractvalue { ptr, i64 } %32, 0
  store ptr %34, ptr %33, align 8
  %35 = getelementptr inbounds nuw { ptr, i64 }, ptr %7, i32 0, i32 1
  %36 = extractvalue { ptr, i64 } %32, 1
  store i64 %36, ptr %35, align 8
  call void @llvm.lifetime.start.p0(i64 4, ptr %8) #3
  store i32 0, ptr %8, align 4, !tbaa !35
  %37 = getelementptr inbounds nuw %"class.google::protobuf::internal::SerialArena", ptr %9, i32 0, i32 4
  %38 = getelementptr inbounds nuw %"class.google::protobuf::internal::SerialArena", ptr %9, i32 0, i32 4
  %39 = load i32, ptr %8, align 4, !tbaa !35
  %40 = call noundef i64 @_ZNKSt13__atomic_baseImE4loadESt12memory_order(ptr noundef nonnull align 8 dereferenceable(8) %38, i32 noundef %39) #3
  %41 = getelementptr inbounds nuw %"struct.google::protobuf::internal::SerialArena::Memory", ptr %7, i32 0, i32 1
  %42 = load i64, ptr %41, align 8, !tbaa !7
  %43 = add i64 %40, %42
  %44 = load i32, ptr %8, align 4, !tbaa !35
  call void @_ZNSt13__atomic_baseImE5storeEmSt12memory_order(ptr noundef nonnull align 8 dereferenceable(8) %37, i64 noundef %43, i32 noundef %44) #3
  %45 = getelementptr inbounds nuw %"struct.google::protobuf::internal::SerialArena::Memory", ptr %7, i32 0, i32 0
  %46 = load ptr, ptr %45, align 8, !tbaa !12
  %47 = getelementptr inbounds nuw %"class.google::protobuf::internal::SerialArena", ptr %9, i32 0, i32 1
  %48 = load ptr, ptr %47, align 8, !tbaa !30
  %49 = getelementptr inbounds nuw %"struct.google::protobuf::internal::SerialArena::Memory", ptr %7, i32 0, i32 1
  %50 = load i64, ptr %49, align 8, !tbaa !7
  call void @_ZN6google8protobuf8internal11SerialArena5BlockC2EPS3_m(ptr noundef nonnull align 8 dereferenceable(24) %46, ptr noundef %48, i64 noundef %50)
  %51 = getelementptr inbounds nuw %"class.google::protobuf::internal::SerialArena", ptr %9, i32 0, i32 1
  store ptr %46, ptr %51, align 8, !tbaa !30
  %52 = getelementptr inbounds nuw %"class.google::protobuf::internal::SerialArena", ptr %9, i32 0, i32 1
  %53 = load ptr, ptr %52, align 8, !tbaa !30
  %54 = call noundef ptr @_ZN6google8protobuf8internal11SerialArena5Block7PointerEm(ptr noundef nonnull align 8 dereferenceable(24) %53, i64 noundef 24)
  %55 = getelementptr inbounds nuw %"class.google::protobuf::internal::SerialArena", ptr %9, i32 0, i32 5
  store ptr %54, ptr %55, align 8, !tbaa !31
  %56 = getelementptr inbounds nuw %"class.google::protobuf::internal::SerialArena", ptr %9, i32 0, i32 1
  %57 = load ptr, ptr %56, align 8, !tbaa !30
  %58 = getelementptr inbounds nuw %"class.google::protobuf::internal::SerialArena", ptr %9, i32 0, i32 1
  %59 = load ptr, ptr %58, align 8, !tbaa !30
  %60 = getelementptr inbounds nuw %"struct.google::protobuf::internal::SerialArena::Block", ptr %59, i32 0, i32 1
  %61 = load i64, ptr %60, align 8, !tbaa !19
  %62 = call noundef ptr @_ZN6google8protobuf8internal11SerialArena5Block7PointerEm(ptr noundef nonnull align 8 dereferenceable(24) %57, i64 noundef %61)
  %63 = getelementptr inbounds nuw %"class.google::protobuf::internal::SerialArena", ptr %9, i32 0, i32 6
  store ptr %62, ptr %63, align 8, !tbaa !32
  call void @llvm.lifetime.end.p0(i64 4, ptr %8) #3
  call void @llvm.lifetime.end.p0(i64 16, ptr %7) #3
  ret void
}

; Function Attrs: mustprogress noinline uwtable
define hidden { ptr, ptr } @_ZN6google8protobuf8internal11SerialArena34AllocateAlignedWithCleanupFallbackEmPKNS1_16AllocationPolicyE(ptr noundef nonnull align 8 dereferenceable(56) %0, i64 noundef %1, ptr noundef %2) #8 align 2 {
  %4 = alloca %"struct.std::pair", align 8
  %5 = alloca ptr, align 8
  %6 = alloca i64, align 8
  %7 = alloca ptr, align 8
  store ptr %0, ptr %5, align 8, !tbaa !22
  store i64 %1, ptr %6, align 8, !tbaa !15
  store ptr %2, ptr %7, align 8, !tbaa !33
  %8 = load ptr, ptr %5, align 8
  %9 = load i64, ptr %6, align 8, !tbaa !15
  %10 = add i64 %9, 16
  %11 = load ptr, ptr %7, align 8, !tbaa !33
  call void @_ZN6google8protobuf8internal11SerialArena16AllocateNewBlockEmPKNS1_16AllocationPolicyE(ptr noundef nonnull align 8 dereferenceable(56) %8, i64 noundef %10, ptr noundef %11)
  %12 = load i64, ptr %6, align 8, !tbaa !15
  %13 = call { ptr, ptr } @_ZN6google8protobuf8internal11SerialArena39AllocateFromExistingWithCleanupFallbackEm(ptr noundef nonnull align 8 dereferenceable(56) %8, i64 noundef %12)
  %14 = getelementptr inbounds nuw { ptr, ptr }, ptr %4, i32 0, i32 0
  %15 = extractvalue { ptr, ptr } %13, 0
  store ptr %15, ptr %14, align 8
  %16 = getelementptr inbounds nuw { ptr, ptr }, ptr %4, i32 0, i32 1
  %17 = extractvalue { ptr, ptr } %13, 1
  store ptr %17, ptr %16, align 8
  %18 = load { ptr, ptr }, ptr %4, align 8
  ret { ptr, ptr } %18
}