; Function Attrs: mustprogress noinline uwtable
define hidden { ptr, ptr } @_ZN6google8protobuf8internal11SerialArena34AllocateAlignedWithCleanupFallbackEmPKNS1_16AllocationPolicyE(ptr noundef nonnull align 8 captures(none) dereferenceable(56) %0, i64 noundef %1, ptr noundef %2) local_unnamed_addr #5 align 2 personality ptr @__gxx_personality_v0 {
  %4 = add i64 %1, 16
  %5 = getelementptr inbounds nuw i8, ptr %0, i64 48
  %6 = load ptr, ptr %5, align 8, !tbaa !23
  %7 = getelementptr inbounds nuw i8, ptr %0, i64 8
  %8 = load ptr, ptr %7, align 8, !tbaa !21
  %9 = getelementptr inbounds nuw i8, ptr %8, i64 16
  store ptr %6, ptr %9, align 8, !tbaa !12
  %10 = getelementptr inbounds nuw i8, ptr %0, i64 40
  %11 = load ptr, ptr %10, align 8, !tbaa !22
  %12 = getelementptr inbounds nuw i8, ptr %8, i64 24
  %13 = ptrtoint ptr %11 to i64
  %14 = ptrtoint ptr %12 to i64
  %15 = sub i64 %13, %14
  %16 = getelementptr inbounds nuw i8, ptr %0, i64 24
  %17 = load i64, ptr %16, align 8, !tbaa !13
  %18 = add i64 %15, %17
  store i64 %18, ptr %16, align 8, !tbaa !13
  %19 = getelementptr inbounds nuw i8, ptr %8, i64 8
  %20 = load i64, ptr %19, align 8, !tbaa !11
  %21 = tail call fastcc { ptr, i64 } @_ZN6google8protobuf8internalL14AllocateMemoryEPKNS1_16AllocationPolicyEmm(ptr noundef %2, i64 noundef %20, i64 noundef %4)
  %22 = extractvalue { ptr, i64 } %21, 0
  %23 = extractvalue { ptr, i64 } %21, 1
  %24 = getelementptr inbounds nuw i8, ptr %0, i64 32
  %25 = load atomic i64, ptr %24 monotonic, align 8
  %26 = add i64 %25, %23
  store atomic i64 %26, ptr %24 monotonic, align 8
  %27 = load ptr, ptr %7, align 8, !tbaa !21
  store ptr %27, ptr %22, align 8, !tbaa !3
  %28 = getelementptr inbounds nuw i8, ptr %22, i64 8
  store i64 %23, ptr %28, align 8, !tbaa !11
  %29 = getelementptr inbounds nuw i8, ptr %22, i64 16
  store ptr null, ptr %29, align 8, !tbaa !12
  store ptr %22, ptr %7, align 8, !tbaa !21
  %30 = getelementptr inbounds nuw i8, ptr %22, i64 24
  %31 = getelementptr inbounds nuw i8, ptr %22, i64 %23
  %32 = getelementptr inbounds nuw i8, ptr %30, i64 %1
  store ptr %32, ptr %10, align 8, !tbaa !22
  %33 = getelementptr inbounds i8, ptr %31, i64 -16
  store ptr %33, ptr %5, align 8, !tbaa !23
  %.fca.0.insert.i.i = insertvalue { ptr, ptr } poison, ptr %30, 0
  %.fca.1.insert.i.i = insertvalue { ptr, ptr } %.fca.0.insert.i.i, ptr %33, 1
  ret { ptr, ptr } %.fca.1.insert.i.i
}